; Function Attrs: mustprogress nounwind uwtable
define dso_local void @_ZN5clang16OMPClausePrinter22VisitOMPNumTasksClauseEPNS_17OMPNumTasksClauseE(ptr noundef nonnull readonly align 8 captures(none) dereferenceable(16) %0, ptr noundef readonly captures(none) %1) local_unnamed_addr #1 align 2 {
  %3 = alloca %"class.llvm::StringRef", align 8
  %4 = load ptr, ptr %0, align 8
  %5 = getelementptr inbounds nuw i8, ptr %4, i64 24
  %6 = load ptr, ptr %5, align 8
  %7 = getelementptr inbounds nuw i8, ptr %4, i64 32
  %8 = load ptr, ptr %7, align 8
  %9 = ptrtoint ptr %6 to i64
  %10 = ptrtoint ptr %8 to i64
  %11 = sub i64 %9, %10
  %12 = icmp ult i64 %11, 10
  br i1 %12, label %13, label %15

13:                                               ; preds = %2
  %14 = tail call noundef nonnull align 8 dereferenceable(48) ptr @_ZN4llvm11raw_ostream5writeEPKcm(ptr noundef nonnull align 8 dereferenceable(48) %4, ptr noundef nonnull @.str.59, i64 noundef 10) #22
  br label %_ZN4llvm11raw_ostreamlsEPKc.exit

15:                                               ; preds = %2
  tail call void @llvm.memcpy.p0.p0.i64(ptr noundef nonnull align 1 dereferenceable(10) %8, ptr noundef nonnull align 1 dereferenceable(10) @.str.59, i64 10, i1 false)
  %16 = load ptr, ptr %7, align 8
  %17 = getelementptr inbounds nuw i8, ptr %16, i64 10
  store ptr %17, ptr %7, align 8
  br label %_ZN4llvm11raw_ostreamlsEPKc.exit

_ZN4llvm11raw_ostreamlsEPKc.exit:                 ; preds = %13, %15
  %18 = getelementptr inbounds nuw i8, ptr %1, i64 32
  %19 = load i32, ptr %18, align 8
  %.not = icmp eq i32 %19, 1
  br i1 %.not, label %_ZN4llvm11raw_ostreamlsEPKc.exit11, label %20

20:                                               ; preds = %_ZN4llvm11raw_ostreamlsEPKc.exit
  %21 = load ptr, ptr %0, align 8
  %22 = getelementptr inbounds nuw i8, ptr %1, i64 8
  %23 = load i32, ptr %22, align 4
  %24 = tail call noundef ptr @_ZN5clang29getOpenMPSimpleClauseTypeNameEN4llvm3omp6ClauseEj(i32 noundef %23, i32 noundef %19) #22
  %.not.i.i = icmp eq ptr %24, null
  br i1 %.not.i.i, label %_ZN4llvm11raw_ostreamlsEPKc.exit7, label %_ZN4llvm9StringRefC2EPKc.exit.i

_ZN4llvm9StringRefC2EPKc.exit.i:                  ; preds = %20
  %25 = tail call noundef i64 @strlen(ptr noundef nonnull dereferenceable(1) %24) #22
  %26 = getelementptr inbounds nuw i8, ptr %21, i64 24
  %27 = load ptr, ptr %26, align 8
  %28 = getelementptr inbounds nuw i8, ptr %21, i64 32
  %29 = load ptr, ptr %28, align 8
  %30 = ptrtoint ptr %27 to i64
  %31 = ptrtoint ptr %29 to i64
  %32 = sub i64 %30, %31
  %33 = icmp ugt i64 %25, %32
  br i1 %33, label %34, label %36

34:                                               ; preds = %_ZN4llvm9StringRefC2EPKc.exit.i
  %35 = tail call noundef nonnull align 8 dereferenceable(48) ptr @_ZN4llvm11raw_ostream5writeEPKcm(ptr noundef nonnull align 8 dereferenceable(48) %21, ptr noundef nonnull %24, i64 noundef %25) #22
  br label %_ZN4llvm11raw_ostreamlsEPKc.exit7

36:                                               ; preds = %_ZN4llvm9StringRefC2EPKc.exit.i
  %.not.i2.i5 = icmp eq i64 %25, 0
  br i1 %.not.i2.i5, label %_ZN4llvm11raw_ostreamlsEPKc.exit7, label %37

37:                                               ; preds = %36
  tail call void @llvm.memcpy.p0.p0.i64(ptr align 1 %29, ptr nonnull align 1 %24, i64 %25, i1 false)
  %38 = load ptr, ptr %28, align 8
  %39 = getelementptr inbounds i8, ptr %38, i64 %25
  store ptr %39, ptr %28, align 8
  br label %_ZN4llvm11raw_ostreamlsEPKc.exit7

_ZN4llvm11raw_ostreamlsEPKc.exit7:                ; preds = %20, %34, %36, %37
  %.0.i.i6 = phi ptr [ %35, %34 ], [ %21, %37 ], [ %21, %36 ], [ %21, %20 ]
  %40 = getelementptr inbounds nuw i8, ptr %.0.i.i6, i64 24
  %41 = load ptr, ptr %40, align 8
  %42 = getelementptr inbounds nuw i8, ptr %.0.i.i6, i64 32
  %43 = load ptr, ptr %42, align 8
  %44 = ptrtoint ptr %41 to i64
  %45 = ptrtoint ptr %43 to i64
  %46 = sub i64 %44, %45
  %47 = icmp ult i64 %46, 2
  br i1 %47, label %48, label %50

48:                                               ; preds = %_ZN4llvm11raw_ostreamlsEPKc.exit7
  %49 = tail call noundef nonnull align 8 dereferenceable(48) ptr @_ZN4llvm11raw_ostream5writeEPKcm(ptr noundef nonnull align 8 dereferenceable(48) %.0.i.i6, ptr noundef nonnull @.str.1, i64 noundef 2) #22
  br label %_ZN4llvm11raw_ostreamlsEPKc.exit11

50:                                               ; preds = %_ZN4llvm11raw_ostreamlsEPKc.exit7
  store i16 8250, ptr %43, align 1
  %51 = load ptr, ptr %42, align 8
  %52 = getelementptr inbounds nuw i8, ptr %51, i64 2
  store ptr %52, ptr %42, align 8
  br label %_ZN4llvm11raw_ostreamlsEPKc.exit11

_ZN4llvm11raw_ostreamlsEPKc.exit11:               ; preds = %50, %48, %_ZN4llvm11raw_ostreamlsEPKc.exit
  %53 = getelementptr inbounds nuw i8, ptr %1, i64 40
  %54 = load ptr, ptr %53, align 8
  %55 = load ptr, ptr %0, align 8
  %56 = getelementptr inbounds nuw i8, ptr %0, i64 8
  %57 = load ptr, ptr %56, align 8
  store ptr @.str.2, ptr %3, align 8
  %58 = getelementptr inbounds nuw i8, ptr %3, i64 8
  store i64 1, ptr %58, align 8
  tail call void @_ZNK5clang4Stmt11printPrettyERN4llvm11raw_ostreamEPNS_13PrinterHelperERKNS_14PrintingPolicyEjNS1_9StringRefEPKNS_10ASTContextE(ptr noundef nonnull align 8 dereferenceable(8) %54, ptr noundef nonnull align 8 dereferenceable(48) %55, ptr noundef null, ptr noundef nonnull align 8 dereferenceable(16) %57, i32 noundef 0, ptr noundef nonnull byval(%"class.llvm::StringRef") align 8 %3, ptr noundef null) #22
  %59 = load ptr, ptr %0, align 8
  %60 = getelementptr inbounds nuw i8, ptr %59, i64 24
  %61 = load ptr, ptr %60, align 8
  %62 = getelementptr inbounds nuw i8, ptr %59, i64 32
  %63 = load ptr, ptr %62, align 8
  %64 = icmp eq ptr %61, %63
  br i1 %64, label %65, label %67

65:                                               ; preds = %_ZN4llvm11raw_ostreamlsEPKc.exit11
  %66 = tail call noundef nonnull align 8 dereferenceable(48) ptr @_ZN4llvm11raw_ostream5writeEPKcm(ptr noundef nonnull align 8 dereferenceable(48) %59, ptr noundef nonnull @.str.3, i64 noundef 1) #22
  br label %_ZN4llvm11raw_ostreamlsEPKc.exit15

67:                                               ; preds = %_ZN4llvm11raw_ostreamlsEPKc.exit11
  store i8 41, ptr %63, align 1
  %68 = load ptr, ptr %62, align 8
  %69 = getelementptr inbounds nuw i8, ptr %68, i64 1
  store ptr %69, ptr %62, align 8
  br label %_ZN4llvm11raw_ostreamlsEPKc.exit15

_ZN4llvm11raw_ostreamlsEPKc.exit15:               ; preds = %65, %67
  ret void
}